target datalayout = "e-m:e-p270:32:32-p271:32:32-p272:64:64-i64:64-i128:128-f80:128-n8:16:32:64-S128"
target triple = "x86_64-pc-linux-gnu"

; Function Attrs: nounwind uwtable
define internal zeroext i1 @imap_matchresp(ptr noundef %0, i64 noundef %1, ptr noundef %2) #0 {
  %4 = alloca i1, align 1
  %5 = alloca ptr, align 8
  %6 = alloca i64, align 8
  %7 = alloca ptr, align 8
  %8 = alloca ptr, align 8
  %9 = alloca i64, align 8
  %10 = alloca i32, align 4
  store ptr %0, ptr %5, align 8, !tbaa !123
  store i64 %1, ptr %6, align 8, !tbaa !119
  store ptr %2, ptr %7, align 8, !tbaa !123
  call void @llvm.lifetime.start.p0(i64 8, ptr %8) #6
  %11 = load ptr, ptr %5, align 8, !tbaa !123
  %12 = load i64, ptr %6, align 8, !tbaa !119
  %13 = getelementptr inbounds nuw i8, ptr %11, i64 %12
  store ptr %13, ptr %8, align 8, !tbaa !123
  call void @llvm.lifetime.start.p0(i64 8, ptr %9) #6
  %14 = load ptr, ptr %7, align 8, !tbaa !123
  %15 = call i64 @strlen(ptr noundef %14) #7
  store i64 %15, ptr %9, align 8, !tbaa !119
  %16 = load ptr, ptr %5, align 8, !tbaa !123
  %17 = getelementptr inbounds i8, ptr %16, i64 2
  store ptr %17, ptr %5, align 8, !tbaa !123
  %18 = load ptr, ptr %5, align 8, !tbaa !123
  %19 = load ptr, ptr %8, align 8, !tbaa !123
  %20 = icmp ult ptr %18, %19
  br i1 %20, label %21, label %66

21:                                               ; preds = %3
  %22 = load ptr, ptr %5, align 8, !tbaa !123
  %23 = load i8, ptr %22, align 1, !tbaa !83
  %24 = sext i8 %23 to i32
  %25 = icmp sge i32 %24, 48
  br i1 %25, label %26, label %66

26:                                               ; preds = %21
  %27 = load ptr, ptr %5, align 8, !tbaa !123
  %28 = load i8, ptr %27, align 1, !tbaa !83
  %29 = sext i8 %28 to i32
  %30 = icmp sle i32 %29, 57
  br i1 %30, label %31, label %66

31:                                               ; preds = %26
  br label %32

32:                                               ; preds = %51, %31
  %33 = load ptr, ptr %5, align 8, !tbaa !123
  %34 = getelementptr inbounds nuw i8, ptr %33, i32 1
  store ptr %34, ptr %5, align 8, !tbaa !123
  br label %35

35:                                               ; preds = %32
  %36 = load ptr, ptr %5, align 8, !tbaa !123
  %37 = load ptr, ptr %8, align 8, !tbaa !123
  %38 = icmp ult ptr %36, %37
  br i1 %38, label %39, label %51

39:                                               ; preds = %35
  %40 = load ptr, ptr %5, align 8, !tbaa !123
  %41 = load i8, ptr %40, align 1, !tbaa !83
  %42 = sext i8 %41 to i32
  %43 = icmp sge i32 %42, 48
  br i1 %43, label %44, label %49

44:                                               ; preds = %39
  %45 = load ptr, ptr %5, align 8, !tbaa !123
  %46 = load i8, ptr %45, align 1, !tbaa !83
  %47 = sext i8 %46 to i32
  %48 = icmp sle i32 %47, 57
  br label %49

49:                                               ; preds = %44, %39
  %50 = phi i1 [ false, %39 ], [ %48, %44 ]
  br label %51

51:                                               ; preds = %49, %35
  %52 = phi i1 [ false, %35 ], [ %50, %49 ]
  br i1 %52, label %32, label %53, !llvm.loop !159

53:                                               ; preds = %51
  %54 = load ptr, ptr %5, align 8, !tbaa !123
  %55 = load ptr, ptr %8, align 8, !tbaa !123
  %56 = icmp eq ptr %54, %55
  br i1 %56, label %62, label %57

57:                                               ; preds = %53
  %58 = load ptr, ptr %5, align 8, !tbaa !123
  %59 = load i8, ptr %58, align 1, !tbaa !83
  %60 = sext i8 %59 to i32
  %61 = icmp ne i32 %60, 32
  br i1 %61, label %62, label %63

62:                                               ; preds = %57, %53
  store i1 false, ptr %4, align 1
  store i32 1, ptr %10, align 4
  br label %94

63:                                               ; preds = %57
  %64 = load ptr, ptr %5, align 8, !tbaa !123
  %65 = getelementptr inbounds nuw i8, ptr %64, i32 1
  store ptr %65, ptr %5, align 8, !tbaa !123
  br label %66

66:                                               ; preds = %63, %26, %21, %3
  %67 = load ptr, ptr %5, align 8, !tbaa !123
  %68 = load i64, ptr %9, align 8, !tbaa !119
  %69 = getelementptr inbounds nuw i8, ptr %67, i64 %68
  %70 = load ptr, ptr %8, align 8, !tbaa !123
  %71 = icmp ule ptr %69, %70
  br i1 %71, label %72, label %93

72:                                               ; preds = %66
  %73 = load ptr, ptr %5, align 8, !tbaa !123
  %74 = load ptr, ptr %7, align 8, !tbaa !123
  %75 = load i64, ptr %9, align 8, !tbaa !119
  %76 = call i32 @curl_strnequal(ptr noundef %73, ptr noundef %74, i64 noundef %75)
  %77 = icmp ne i32 %76, 0
  br i1 %77, label %78, label %93

78:                                               ; preds = %72
  %79 = load ptr, ptr %5, align 8, !tbaa !123
  %80 = load i64, ptr %9, align 8, !tbaa !119
  %81 = getelementptr inbounds nuw i8, ptr %79, i64 %80
  %82 = load i8, ptr %81, align 1, !tbaa !83
  %83 = sext i8 %82 to i32
  %84 = icmp eq i32 %83, 32
  br i1 %84, label %92, label %85

85:                                               ; preds = %78
  %86 = load ptr, ptr %5, align 8, !tbaa !123
  %87 = load i64, ptr %9, align 8, !tbaa !119
  %88 = getelementptr inbounds nuw i8, ptr %86, i64 %87
  %89 = getelementptr inbounds i8, ptr %88, i64 2
  %90 = load ptr, ptr %8, align 8, !tbaa !123
  %91 = icmp eq ptr %89, %90
  br i1 %91, label %92, label %93

92:                                               ; preds = %85, %78
  store i1 true, ptr %4, align 1
  store i32 1, ptr %10, align 4
  br label %94

93:                                               ; preds = %85, %72, %66
  store i1 false, ptr %4, align 1
  store i32 1, ptr %10, align 4
  br label %94

94:                                               ; preds = %93, %92, %62
  call void @llvm.lifetime.end.p0(i64 8, ptr %9) #6
  call void @llvm.lifetime.end.p0(i64 8, ptr %8) #6
  %95 = load i1, ptr %4, align 1
  ret i1 %95
}