; Function Attrs: nounwind uwtable
define internal fastcc noundef zeroext i1 @imap_matchresp(ptr noundef %0, i64 noundef range(i64 2, 0) %1, ptr noundef %2) unnamed_addr #0 {
  %4 = getelementptr inbounds nuw i8, ptr %0, i64 %1
  %5 = tail call i64 @strlen(ptr noundef nonnull dereferenceable(1) %2) #8
  %6 = getelementptr inbounds nuw i8, ptr %0, i64 2
  %7 = icmp samesign ugt i64 %1, 2
  br i1 %7, label %8, label %21

8:                                                ; preds = %3
  %9 = load i8, ptr %6, align 1, !tbaa !7
  %10 = add i8 %9, -48
  %or.cond = icmp ult i8 %10, 10
  br i1 %or.cond, label %.preheader, label %21

.preheader:                                       ; preds = %8, %13
  %.1 = phi ptr [ %11, %13 ], [ %6, %8 ]
  %11 = getelementptr inbounds nuw i8, ptr %.1, i64 1
  %12 = icmp ult ptr %11, %4
  br i1 %12, label %13, label %.critedge

13:                                               ; preds = %.preheader
  %14 = load i8, ptr %11, align 1, !tbaa !7
  %15 = add i8 %14, -48
  %or.cond40 = icmp ult i8 %15, 10
  br i1 %or.cond40, label %.preheader, label %.critedge, !llvm.loop !152

.critedge:                                        ; preds = %.preheader, %13
  %16 = icmp eq ptr %11, %4
  br i1 %16, label %31, label %17

17:                                               ; preds = %.critedge
  %18 = load i8, ptr %11, align 1, !tbaa !7
  %.not = icmp eq i8 %18, 32
  br i1 %.not, label %19, label %31

19:                                               ; preds = %17
  %20 = getelementptr inbounds nuw i8, ptr %.1, i64 2
  br label %21

21:                                               ; preds = %19, %8, %3
  %.028 = phi ptr [ %20, %19 ], [ %6, %8 ], [ %6, %3 ]
  %22 = getelementptr inbounds nuw i8, ptr %.028, i64 %5
  %.not38 = icmp ugt ptr %22, %4
  br i1 %.not38, label %30, label %23

23:                                               ; preds = %21
  %24 = tail call i32 @curl_strnequal(ptr noundef nonnull %.028, ptr noundef nonnull %2, i64 noundef %5) #7
  %.not39 = icmp eq i32 %24, 0
  br i1 %.not39, label %30, label %25

25:                                               ; preds = %23
  %26 = load i8, ptr %22, align 1, !tbaa !7
  %27 = icmp eq i8 %26, 32
  %28 = getelementptr inbounds nuw i8, ptr %22, i64 2
  %29 = icmp eq ptr %28, %4
  %or.cond42 = select i1 %27, i1 true, i1 %29
  br i1 %or.cond42, label %31, label %30

30:                                               ; preds = %25, %23, %21
  br label %31

31:                                               ; preds = %25, %.critedge, %17, %30
  %.0 = phi i1 [ false, %30 ], [ false, %17 ], [ false, %.critedge ], [ true, %25 ]
  ret i1 %.0
}